; ModuleID = '11/1008.cpp'
source_filename = "11/1008.cpp"
target datalayout = "e-m:e-p270:32:32-p271:32:32-p272:64:64-i64:64-f80:128-n8:16:32:64-S128"
target triple = "x86_64-pc-linux-gnu"

%"class.std::ios_base::Init" = type { i8 }
%"class.std::basic_istream" = type { i32 (...)**, i64, %"class.std::basic_ios" }
%"class.std::basic_ios" = type { %"class.std::ios_base", %"class.std::basic_ostream"*, i8, i8, %"class.std::basic_streambuf"*, %"class.std::ctype"*, %"class.std::num_put"*, %"class.std::num_get"* }
%"class.std::ios_base" = type { i32 (...)**, i64, i64, i32, i32, i32, %"struct.std::ios_base::_Callback_list"*, %"struct.std::ios_base::_Words", [8 x %"struct.std::ios_base::_Words"], i32, %"struct.std::ios_base::_Words"*, %"class.std::locale" }
%"struct.std::ios_base::_Callback_list" = type { %"struct.std::ios_base::_Callback_list"*, void (i32, %"class.std::ios_base"*, i32)*, i32, i32 }
%"struct.std::ios_base::_Words" = type { i8*, i64 }
%"class.std::locale" = type { %"class.std::locale::_Impl"* }
%"class.std::locale::_Impl" = type { i32, %"class.std::locale::facet"**, i64, %"class.std::locale::facet"**, i8** }
%"class.std::locale::facet" = type <{ i32 (...)**, i32, [4 x i8] }>
%"class.std::basic_ostream" = type { i32 (...)**, %"class.std::basic_ios" }
%"class.std::basic_streambuf" = type { i32 (...)**, i8*, i8*, i8*, i8*, i8*, i8*, %"class.std::locale" }
%"class.std::ctype" = type <{ %"class.std::locale::facet.base", [4 x i8], %struct.__locale_struct*, i8, [7 x i8], i32*, i32*, i16*, i8, [256 x i8], [256 x i8], i8, [6 x i8] }>
%"class.std::locale::facet.base" = type <{ i32 (...)**, i32 }>
%struct.__locale_struct = type { [13 x %struct.__locale_data*], i16*, i32*, i32*, [13 x i8*] }
%struct.__locale_data = type opaque
%"class.std::num_put" = type { %"class.std::locale::facet.base", [4 x i8] }
%"class.std::num_get" = type { %"class.std::locale::facet.base", [4 x i8] }

@_ZStL8__ioinit = internal global %"class.std::ios_base::Init" zeroinitializer, align 1
@__dso_handle = external hidden global i8
@_ZSt3cin = external dso_local global %"class.std::basic_istream", align 8
@_ZSt4cout = external dso_local global %"class.std::basic_ostream", align 8
@llvm.global_ctors = appending global [1 x { i32, void ()*, i8* }] [{ i32, void ()*, i8* } { i32 65535, void ()* @_GLOBAL__sub_I_1008.cpp, i8* null }]

; Function Attrs: noinline uwtable
define internal void @__cxx_global_var_init() #0 section ".text.startup" {
  call void @_ZNSt8ios_base4InitC1Ev(%"class.std::ios_base::Init"* @_ZStL8__ioinit)
  %1 = call i32 @__cxa_atexit(void (i8*)* bitcast (void (%"class.std::ios_base::Init"*)* @_ZNSt8ios_base4InitD1Ev to void (i8*)*), i8* getelementptr inbounds (%"class.std::ios_base::Init", %"class.std::ios_base::Init"* @_ZStL8__ioinit, i32 0, i32 0), i8* @__dso_handle) #3
  ret void
}

declare dso_local void @_ZNSt8ios_base4InitC1Ev(%"class.std::ios_base::Init"*) unnamed_addr #1

; Function Attrs: nounwind
declare dso_local void @_ZNSt8ios_base4InitD1Ev(%"class.std::ios_base::Init"*) unnamed_addr #2

; Function Attrs: nounwind
declare dso_local i32 @__cxa_atexit(void (i8*)*, i8*, i8*) #3

; Function Attrs: noinline norecurse uwtable
define dso_local i32 @main() #4 {
  %1 = alloca i32, align 4
  %2 = alloca i32, align 4
  %3 = alloca i32, align 4
  %4 = alloca i32, align 4
  %5 = alloca [13 x i32], align 16
  %6 = alloca i32, align 4
  %7 = alloca i32, align 4
  store i32 0, i32* %1, align 4
  store i32 0, i32* %7, align 4
  %8 = getelementptr inbounds [13 x i32], [13 x i32]* %5, i64 0, i64 12
  store i32 31, i32* %8, align 16
  %9 = getelementptr inbounds [13 x i32], [13 x i32]* %5, i64 0, i64 10
  store i32 31, i32* %9, align 8
  %10 = getelementptr inbounds [13 x i32], [13 x i32]* %5, i64 0, i64 8
  store i32 31, i32* %10, align 16
  %11 = getelementptr inbounds [13 x i32], [13 x i32]* %5, i64 0, i64 7
  store i32 31, i32* %11, align 4
  %12 = getelementptr inbounds [13 x i32], [13 x i32]* %5, i64 0, i64 5
  store i32 31, i32* %12, align 4
  %13 = getelementptr inbounds [13 x i32], [13 x i32]* %5, i64 0, i64 3
  store i32 31, i32* %13, align 4
  %14 = getelementptr inbounds [13 x i32], [13 x i32]* %5, i64 0, i64 1
  store i32 31, i32* %14, align 4
  %15 = getelementptr inbounds [13 x i32], [13 x i32]* %5, i64 0, i64 2
  store i32 0, i32* %15, align 8
  %16 = getelementptr inbounds [13 x i32], [13 x i32]* %5, i64 0, i64 0
  store i32 0, i32* %16, align 16
  %17 = getelementptr inbounds [13 x i32], [13 x i32]* %5, i64 0, i64 11
  store i32 30, i32* %17, align 4
  %18 = getelementptr inbounds [13 x i32], [13 x i32]* %5, i64 0, i64 9
  store i32 30, i32* %18, align 4
  %19 = getelementptr inbounds [13 x i32], [13 x i32]* %5, i64 0, i64 6
  store i32 30, i32* %19, align 8
  %20 = getelementptr inbounds [13 x i32], [13 x i32]* %5, i64 0, i64 4
  store i32 30, i32* %20, align 16
  %21 = call dereferenceable(280) %"class.std::basic_istream"* @_ZNSirsERi(%"class.std::basic_istream"* @_ZSt3cin, i32* dereferenceable(4) %2)
  %22 = call dereferenceable(280) %"class.std::basic_istream"* @_ZNSirsERi(%"class.std::basic_istream"* %21, i32* dereferenceable(4) %3)
  %23 = call dereferenceable(280) %"class.std::basic_istream"* @_ZNSirsERi(%"class.std::basic_istream"* %22, i32* dereferenceable(4) %4)
  %24 = load i32, i32* %2, align 4
  %25 = srem i32 %24, 4
  %26 = icmp eq i32 %25, 0
  br i1 %26, label %27, label %31

27:                                               ; preds = %0
  %28 = load i32, i32* %2, align 4
  %29 = srem i32 %28, 100
  %30 = icmp ne i32 %29, 0
  br i1 %30, label %39, label %31

31:                                               ; preds = %27, %0
  %32 = load i32, i32* %2, align 4
  %33 = srem i32 %32, 100
  %34 = icmp eq i32 %33, 0
  br i1 %34, label %35, label %41

35:                                               ; preds = %31
  %36 = load i32, i32* %2, align 4
  %37 = srem i32 %36, 400
  %38 = icmp eq i32 %37, 0
  br i1 %38, label %39, label %41

39:                                               ; preds = %35, %27
  %40 = getelementptr inbounds [13 x i32], [13 x i32]* %5, i64 0, i64 2
  store i32 29, i32* %40, align 8
  br label %43

41:                                               ; preds = %35, %31
  %42 = getelementptr inbounds [13 x i32], [13 x i32]* %5, i64 0, i64 2
  store i32 28, i32* %42, align 8
  br label %43

43:                                               ; preds = %41, %39
  store i32 1, i32* %6, align 4
  br label %44

44:                                               ; preds = %55, %43
  %45 = load i32, i32* %6, align 4
  %46 = load i32, i32* %3, align 4
  %47 = icmp slt i32 %45, %46
  br i1 %47, label %48, label %58

48:                                               ; preds = %44
  %49 = load i32, i32* %7, align 4
  %50 = load i32, i32* %6, align 4
  %51 = sext i32 %50 to i64
  %52 = getelementptr inbounds [13 x i32], [13 x i32]* %5, i64 0, i64 %51
  %53 = load i32, i32* %52, align 4
  %54 = add nsw i32 %49, %53
  store i32 %54, i32* %7, align 4
  br label %55

55:                                               ; preds = %48
  %56 = load i32, i32* %6, align 4
  %57 = add nsw i32 %56, 1
  store i32 %57, i32* %6, align 4
  br label %44

58:                                               ; preds = %44
  %59 = load i32, i32* %7, align 4
  %60 = load i32, i32* %4, align 4
  %61 = add nsw i32 %59, %60
  store i32 %61, i32* %7, align 4
  %62 = load i32, i32* %7, align 4
  %63 = call dereferenceable(272) %"class.std::basic_ostream"* @_ZNSolsEi(%"class.std::basic_ostream"* @_ZSt4cout, i32 %62)
  %64 = call dereferenceable(272) %"class.std::basic_ostream"* @_ZNSolsEPFRSoS_E(%"class.std::basic_ostream"* %63, %"class.std::basic_ostream"* (%"class.std::basic_ostream"*)* @_ZSt4endlIcSt11char_traitsIcEERSt13basic_ostreamIT_T0_ES6_)
  ret i32 0
}

declare dso_local dereferenceable(280) %"class.std::basic_istream"* @_ZNSirsERi(%"class.std::basic_istream"*, i32* dereferenceable(4)) #1

declare dso_local dereferenceable(272) %"class.std::basic_ostream"* @_ZNSolsEi(%"class.std::basic_ostream"*, i32) #1

declare dso_local dereferenceable(272) %"class.std::basic_ostream"* @_ZNSolsEPFRSoS_E(%"class.std::basic_ostream"*, %"class.std::basic_ostream"* (%"class.std::basic_ostream"*)*) #1

declare dso_local dereferenceable(272) %"class.std::basic_ostream"* @_ZSt4endlIcSt11char_traitsIcEERSt13basic_ostreamIT_T0_ES6_(%"class.std::basic_ostream"* dereferenceable(272)) #1

; Function Attrs: noinline uwtable
define internal void @_GLOBAL__sub_I_1008.cpp() #0 section ".text.startup" {
  call void @__cxx_global_var_init()
  ret void
}


!llvm.module.flags = !{!0}
!llvm.ident = !{!1}

!0 = !{i32 1, !"wchar_size", i32 4}
!1 = !{!"clang version 10.0.0-4ubuntu1 "}
